target datalayout = "e-m:e-p270:32:32-p271:32:32-p272:64:64-i64:64-i128:128-f80:128-n8:16:32:64-S128"
target triple = "x86_64-unknown-linux-gnu"

%"class.hermes::vm::SamplingProfiler" = type { ptr, %"class.std::mutex", %"class.std::vector", i32, i32, %"struct.hermes::vm::SamplingProfiler::StackTrace", %"class.llvh::DenseMap", %"class.std::unordered_set", %"class.std::vector.10", %"class.std::vector.15", ptr }
%"class.std::mutex" = type { %"class.std::__mutex_base" }
%"class.std::__mutex_base" = type { %union.pthread_mutex_t }
%union.pthread_mutex_t = type { %struct.__pthread_mutex_s }
%struct.__pthread_mutex_s = type { i32, i32, i32, i32, i32, i16, i16, %struct.__pthread_internal_list }
%struct.__pthread_internal_list = type { ptr, ptr }
%"class.std::vector" = type { %"struct.std::_Vector_base" }
%"struct.std::_Vector_base" = type { %"struct.std::_Vector_base<hermes::vm::SamplingProfiler::StackTrace, std::allocator<hermes::vm::SamplingProfiler::StackTrace>>::_Vector_impl" }
%"struct.std::_Vector_base<hermes::vm::SamplingProfiler::StackTrace, std::allocator<hermes::vm::SamplingProfiler::StackTrace>>::_Vector_impl" = type { %"struct.std::_Vector_base<hermes::vm::SamplingProfiler::StackTrace, std::allocator<hermes::vm::SamplingProfiler::StackTrace>>::_Vector_impl_data" }
%"struct.std::_Vector_base<hermes::vm::SamplingProfiler::StackTrace, std::allocator<hermes::vm::SamplingProfiler::StackTrace>>::_Vector_impl_data" = type { ptr, ptr, ptr }
%"struct.hermes::vm::SamplingProfiler::StackTrace" = type { i64, %"class.std::chrono::time_point", %"class.std::vector.0" }
%"class.std::chrono::time_point" = type { %"class.std::chrono::duration" }
%"class.std::chrono::duration" = type { i64 }
%"class.std::vector.0" = type { %"struct.std::_Vector_base.1" }
%"struct.std::_Vector_base.1" = type { %"struct.std::_Vector_base<hermes::vm::SamplingProfiler::StackFrame, std::allocator<hermes::vm::SamplingProfiler::StackFrame>>::_Vector_impl" }
%"struct.std::_Vector_base<hermes::vm::SamplingProfiler::StackFrame, std::allocator<hermes::vm::SamplingProfiler::StackFrame>>::_Vector_impl" = type { %"struct.std::_Vector_base<hermes::vm::SamplingProfiler::StackFrame, std::allocator<hermes::vm::SamplingProfiler::StackFrame>>::_Vector_impl_data" }
%"struct.std::_Vector_base<hermes::vm::SamplingProfiler::StackFrame, std::allocator<hermes::vm::SamplingProfiler::StackFrame>>::_Vector_impl_data" = type { ptr, ptr, ptr }
%"class.llvh::DenseMap" = type <{ ptr, i32, i32, i32, [4 x i8] }>
%"class.std::unordered_set" = type { %"class.std::_Hashtable" }
%"class.std::_Hashtable" = type { ptr, i64, %"struct.std::__detail::_Hash_node_base", i64, %"struct.std::__detail::_Prime_rehash_policy", ptr }
%"struct.std::__detail::_Hash_node_base" = type { ptr }
%"struct.std::__detail::_Prime_rehash_policy" = type { float, i64 }
%"class.std::vector.10" = type { %"struct.std::_Vector_base.11" }
%"struct.std::_Vector_base.11" = type { %"struct.std::_Vector_base<hermes::vm::Domain *, std::allocator<hermes::vm::Domain *>>::_Vector_impl" }
%"struct.std::_Vector_base<hermes::vm::Domain *, std::allocator<hermes::vm::Domain *>>::_Vector_impl" = type { %"struct.std::_Vector_base<hermes::vm::Domain *, std::allocator<hermes::vm::Domain *>>::_Vector_impl_data" }
%"struct.std::_Vector_base<hermes::vm::Domain *, std::allocator<hermes::vm::Domain *>>::_Vector_impl_data" = type { ptr, ptr, ptr }
%"class.std::vector.15" = type { %"struct.std::_Vector_base.16" }
%"struct.std::_Vector_base.16" = type { %"struct.std::_Vector_base<hermes::vm::NativeFunction *, std::allocator<hermes::vm::NativeFunction *>>::_Vector_impl" }
%"struct.std::_Vector_base<hermes::vm::NativeFunction *, std::allocator<hermes::vm::NativeFunction *>>::_Vector_impl" = type { %"struct.std::_Vector_base<hermes::vm::NativeFunction *, std::allocator<hermes::vm::NativeFunction *>>::_Vector_impl_data" }
%"struct.std::_Vector_base<hermes::vm::NativeFunction *, std::allocator<hermes::vm::NativeFunction *>>::_Vector_impl_data" = type { ptr, ptr, ptr }
%"class.std::lock_guard" = type { ptr }
%"class.std::__shared_count" = type { ptr }
%"class.hermes::vm::ChromeTraceFormat" = type { i32, [4 x i8], %"class.llvh::DenseMap", %"class.std::shared_ptr.232", %"class.std::vector.235" }
%"class.std::shared_ptr.232" = type { %"class.std::__shared_ptr.233" }
%"class.std::__shared_ptr.233" = type { ptr, %"class.std::__shared_count" }
%"class.std::vector.235" = type { %"struct.std::_Vector_base.236" }
%"struct.std::_Vector_base.236" = type { %"struct.std::_Vector_base<hermes::vm::ChromeSampleEvent, std::allocator<hermes::vm::ChromeSampleEvent>>::_Vector_impl" }
%"struct.std::_Vector_base<hermes::vm::ChromeSampleEvent, std::allocator<hermes::vm::ChromeSampleEvent>>::_Vector_impl" = type { %"struct.std::_Vector_base<hermes::vm::ChromeSampleEvent, std::allocator<hermes::vm::ChromeSampleEvent>>::_Vector_impl_data" }
%"struct.std::_Vector_base<hermes::vm::ChromeSampleEvent, std::allocator<hermes::vm::ChromeSampleEvent>>::_Vector_impl_data" = type { ptr, ptr, ptr }

; Function Attrs: mustprogress nounwind uwtable
define internal noundef i32 @_ZL18__gthread_active_pv() #0 {
entry:
  ret i32 1
}

; Function Attrs: mustprogress nounwind uwtable
define internal noundef i32 @_ZL22__gthread_mutex_unlockP15pthread_mutex_t(ptr noundef %__mutex) #0 {
entry:
  %retval = alloca i32, align 4
  %__mutex.addr = alloca ptr, align 8
  store ptr %__mutex, ptr %__mutex.addr, align 8
  %call = call noundef i32 @_ZL18__gthread_active_pv()
  %tobool = icmp ne i32 %call, 0
  br i1 %tobool, label %if.then, label %if.else

if.then:                                          ; preds = %entry
  %0 = load ptr, ptr %__mutex.addr, align 8
  %call1 = call i32 @pthread_mutex_unlock(ptr noundef %0) #10
  store i32 %call1, ptr %retval, align 4
  br label %return

if.else:                                          ; preds = %entry
  store i32 0, ptr %retval, align 4
  br label %return

return:                                           ; preds = %if.else, %if.then
  %1 = load i32, ptr %retval, align 4
  ret i32 %1
}

; Function Attrs: mustprogress nounwind uwtable
define internal noundef i32 @_ZL20__gthread_mutex_lockP15pthread_mutex_t(ptr noundef %__mutex) #0 {
entry:
  %retval = alloca i32, align 4
  %__mutex.addr = alloca ptr, align 8
  store ptr %__mutex, ptr %__mutex.addr, align 8
  %call = call noundef i32 @_ZL18__gthread_active_pv()
  %tobool = icmp ne i32 %call, 0
  br i1 %tobool, label %if.then, label %if.else

if.then:                                          ; preds = %entry
  %0 = load ptr, ptr %__mutex.addr, align 8
  %call1 = call i32 @pthread_mutex_lock(ptr noundef %0) #10
  store i32 %call1, ptr %retval, align 4
  br label %return

if.else:                                          ; preds = %entry
  store i32 0, ptr %retval, align 4
  br label %return

return:                                           ; preds = %if.else, %if.then
  %1 = load i32, ptr %retval, align 4
  ret i32 %1
}

; Function Attrs: mustprogress nounwind uwtable
define linkonce_odr void @_ZNSt5mutex6unlockEv(ptr noundef nonnull align 8 dereferenceable(40) %this) #0 comdat align 2 {
entry:
  %this.addr = alloca ptr, align 8
  store ptr %this, ptr %this.addr, align 8
  %this1 = load ptr, ptr %this.addr, align 8
  %_M_mutex = getelementptr inbounds %"class.std::__mutex_base", ptr %this1, i32 0, i32 0
  %call = call noundef i32 @_ZL22__gthread_mutex_unlockP15pthread_mutex_t(ptr noundef %_M_mutex)
  ret void
}

; Function Attrs: mustprogress nounwind uwtable
define linkonce_odr void @_ZNSt5mutex4lockEv(ptr noundef nonnull align 8 dereferenceable(40) %this) #0 comdat align 2 {
entry:
  %this.addr = alloca ptr, align 8
  %__e = alloca i32, align 4
  store ptr %this, ptr %this.addr, align 8
  %this1 = load ptr, ptr %this.addr, align 8
  %_M_mutex = getelementptr inbounds %"class.std::__mutex_base", ptr %this1, i32 0, i32 0
  %call = call noundef i32 @_ZL20__gthread_mutex_lockP15pthread_mutex_t(ptr noundef %_M_mutex)
  store i32 %call, ptr %__e, align 4
  %0 = load i32, ptr %__e, align 4
  %tobool = icmp ne i32 %0, 0
  br i1 %tobool, label %if.then, label %if.end

if.then:                                          ; preds = %entry
  %1 = load i32, ptr %__e, align 4
  call void @_ZSt20__throw_system_errori(i32 noundef %1) #13
  unreachable

if.end:                                           ; preds = %entry
  ret void
}

; Function Attrs: mustprogress nounwind uwtable
define linkonce_odr void @_ZNSt10lock_guardISt5mutexED2Ev(ptr noundef nonnull align 8 dereferenceable(8) %this) unnamed_addr #0 comdat align 2 {
entry:
  %this.addr = alloca ptr, align 8
  store ptr %this, ptr %this.addr, align 8
  %this1 = load ptr, ptr %this.addr, align 8
  %_M_device = getelementptr inbounds %"class.std::lock_guard", ptr %this1, i32 0, i32 0
  %0 = load ptr, ptr %_M_device, align 8
  call void @_ZNSt5mutex6unlockEv(ptr noundef nonnull align 8 dereferenceable(40) %0)
  ret void
}

; Function Attrs: mustprogress nounwind uwtable
define linkonce_odr void @_ZNSt10lock_guardISt5mutexEC2ERS0_(ptr noundef nonnull align 8 dereferenceable(8) %this, ptr noundef nonnull align 8 dereferenceable(40) %__m) unnamed_addr #0 comdat align 2 {
entry:
  %this.addr = alloca ptr, align 8
  %__m.addr = alloca ptr, align 8
  store ptr %this, ptr %this.addr, align 8
  store ptr %__m, ptr %__m.addr, align 8
  %this1 = load ptr, ptr %this.addr, align 8
  %_M_device = getelementptr inbounds %"class.std::lock_guard", ptr %this1, i32 0, i32 0
  %0 = load ptr, ptr %__m.addr, align 8
  store ptr %0, ptr %_M_device, align 8
  %_M_device2 = getelementptr inbounds %"class.std::lock_guard", ptr %this1, i32 0, i32 0
  %1 = load ptr, ptr %_M_device2, align 8
  call void @_ZNSt5mutex4lockEv(ptr noundef nonnull align 8 dereferenceable(40) %1)
  ret void
}

; Function Attrs: mustprogress nounwind uwtable
define hidden void @_ZN6hermes2vm16SamplingProfiler25serializeInDevToolsFormatERN4llvh11raw_ostreamE(ptr noundef nonnull align 8 dereferenceable(256) %this, ptr noundef nonnull align 8 dereferenceable(36) %OS) #0 align 2 {
entry:
  %this.addr = alloca ptr, align 8
  %OS.addr = alloca ptr, align 8
  %lk = alloca %"class.std::lock_guard", align 8
  %ref.tmp = alloca %"class.hermes::vm::ChromeTraceFormat", align 8
  store ptr %this, ptr %this.addr, align 8
  store ptr %OS, ptr %OS.addr, align 8
  %this1 = load ptr, ptr %this.addr, align 8
  %runtimeDataLock_ = getelementptr inbounds %"class.hermes::vm::SamplingProfiler", ptr %this1, i32 0, i32 1
  call void @_ZNSt10lock_guardISt5mutexEC2ERS0_(ptr noundef nonnull align 8 dereferenceable(8) %lk, ptr noundef nonnull align 8 dereferenceable(40) %runtimeDataLock_)
  %0 = load ptr, ptr %OS.addr, align 8
  %call = call noundef i64 @_ZN6hermes8oscompat10process_idEv()
  %conv = trunc i64 %call to i32
  %threadNames_ = getelementptr inbounds %"class.hermes::vm::SamplingProfiler", ptr %this1, i32 0, i32 6
  %sampledStacks_ = getelementptr inbounds %"class.hermes::vm::SamplingProfiler", ptr %this1, i32 0, i32 2
  call void @_ZN6hermes2vm17ChromeTraceFormat6createEjRKN4llvh8DenseMapImNSt7__cxx1112basic_stringIcSt11char_traitsIcESaIcEEENS2_12DenseMapInfoImEENS2_6detail12DenseMapPairImS9_EEEERKSt6vectorINS0_16SamplingProfiler10StackTraceESaISK_EE(ptr sret(%"class.hermes::vm::ChromeTraceFormat") align 8 %ref.tmp, i32 noundef %conv, ptr noundef nonnull align 8 dereferenceable(20) %threadNames_, ptr noundef nonnull align 8 dereferenceable(24) %sampledStacks_)
  call void @_ZN6hermes2vm26serializeAsProfilerProfileERKNS0_16SamplingProfilerERN4llvh11raw_ostreamEONS0_17ChromeTraceFormatE(ptr noundef nonnull align 8 dereferenceable(256) %this1, ptr noundef nonnull align 8 dereferenceable(36) %0, ptr noundef nonnull align 8 dereferenceable(72) %ref.tmp)
  call void @_ZN6hermes2vm17ChromeTraceFormatD2Ev(ptr noundef nonnull align 8 dereferenceable(72) %ref.tmp) #10
  call void @_ZN6hermes2vm16SamplingProfiler5clearEv(ptr noundef nonnull align 8 dereferenceable(256) %this1)
  call void @_ZNSt10lock_guardISt5mutexED2Ev(ptr noundef nonnull align 8 dereferenceable(8) %lk) #10
  ret void
}